target datalayout = "e-m:e-p270:32:32-p271:32:32-p272:64:64-i64:64-i128:128-f80:128-n8:16:32:64-S128"
target triple = "x86_64-pc-linux-gnu"

; Function Attrs: nounwind uwtable
define i32 @Ver_FindGateInput(ptr noundef %0, ptr noundef %1) #0 {
  %3 = alloca i32, align 4
  %4 = alloca ptr, align 8
  %5 = alloca ptr, align 8
  %6 = alloca ptr, align 8
  %7 = alloca i32, align 4
  %8 = alloca i32, align 4
  store ptr %0, ptr %4, align 8, !tbaa !80
  store ptr %1, ptr %5, align 8, !tbaa !3
  call void @llvm.lifetime.start.p0(i64 8, ptr %6) #10
  call void @llvm.lifetime.start.p0(i64 4, ptr %7) #10
  store i32 0, ptr %7, align 4, !tbaa !10
  %9 = load ptr, ptr %4, align 8, !tbaa !80
  %10 = call ptr @Mio_GateReadPins(ptr noundef %9)
  store ptr %10, ptr %6, align 8, !tbaa !82
  br label %11

11:                                               ; preds = %23, %2
  %12 = load ptr, ptr %6, align 8, !tbaa !82
  %13 = icmp ne ptr %12, null
  br i1 %13, label %14, label %28

14:                                               ; preds = %11
  %15 = load ptr, ptr %5, align 8, !tbaa !3
  %16 = load ptr, ptr %6, align 8, !tbaa !82
  %17 = call ptr @Mio_PinReadName(ptr noundef %16)
  %18 = call i32 @strcmp(ptr noundef %15, ptr noundef %17) #12
  %19 = icmp eq i32 %18, 0
  br i1 %19, label %20, label %22

20:                                               ; preds = %14
  %21 = load i32, ptr %7, align 4, !tbaa !10
  store i32 %21, ptr %3, align 4
  store i32 1, ptr %8, align 4
  br label %51

22:                                               ; preds = %14
  br label %23

23:                                               ; preds = %22
  %24 = load ptr, ptr %6, align 8, !tbaa !82
  %25 = call ptr @Mio_PinReadNext(ptr noundef %24)
  store ptr %25, ptr %6, align 8, !tbaa !82
  %26 = load i32, ptr %7, align 4, !tbaa !10
  %27 = add nsw i32 %26, 1
  store i32 %27, ptr %7, align 4, !tbaa !10
  br label %11, !llvm.loop !84

28:                                               ; preds = %11
  %29 = load ptr, ptr %5, align 8, !tbaa !3
  %30 = load ptr, ptr %4, align 8, !tbaa !80
  %31 = call ptr @Mio_GateReadOutName(ptr noundef %30)
  %32 = call i32 @strcmp(ptr noundef %29, ptr noundef %31) #12
  %33 = icmp eq i32 %32, 0
  br i1 %33, label %34, label %36

34:                                               ; preds = %28
  %35 = load i32, ptr %7, align 4, !tbaa !10
  store i32 %35, ptr %3, align 4
  store i32 1, ptr %8, align 4
  br label %51

36:                                               ; preds = %28
  %37 = load ptr, ptr %4, align 8, !tbaa !80
  %38 = call ptr @Mio_GateReadTwin(ptr noundef %37)
  %39 = icmp ne ptr %38, null
  br i1 %39, label %40, label %50

40:                                               ; preds = %36
  %41 = load ptr, ptr %5, align 8, !tbaa !3
  %42 = load ptr, ptr %4, align 8, !tbaa !80
  %43 = call ptr @Mio_GateReadTwin(ptr noundef %42)
  %44 = call ptr @Mio_GateReadOutName(ptr noundef %43)
  %45 = call i32 @strcmp(ptr noundef %41, ptr noundef %44) #12
  %46 = icmp eq i32 %45, 0
  br i1 %46, label %47, label %50

47:                                               ; preds = %40
  %48 = load i32, ptr %7, align 4, !tbaa !10
  %49 = add nsw i32 %48, 1
  store i32 %49, ptr %3, align 4
  store i32 1, ptr %8, align 4
  br label %51

50:                                               ; preds = %40, %36
  store i32 -1, ptr %3, align 4
  store i32 1, ptr %8, align 4
  br label %51

51:                                               ; preds = %50, %47, %34, %20
  call void @llvm.lifetime.end.p0(i64 4, ptr %7) #10
  call void @llvm.lifetime.end.p0(i64 8, ptr %6) #10
  %52 = load i32, ptr %3, align 4
  ret i32 %52
}