; Function Attrs: nounwind uwtable
define i32 @Ver_FindGateInput(ptr noundef %0, ptr noundef readonly captures(none) %1) local_unnamed_addr #0 {
  %3 = tail call ptr @Mio_GateReadPins(ptr noundef %0) #20
  %.not18 = icmp eq ptr %3, null
  br i1 %.not18, label %._crit_edge, label %.lr.ph

.lr.ph:                                           ; preds = %2, %7
  %.020 = phi i32 [ %9, %7 ], [ 0, %2 ]
  %.01419 = phi ptr [ %8, %7 ], [ %3, %2 ]
  %4 = tail call ptr @Mio_PinReadName(ptr noundef nonnull %.01419) #20
  %5 = tail call i32 @strcmp(ptr noundef nonnull dereferenceable(1) %1, ptr noundef nonnull dereferenceable(1) %4) #22
  %6 = icmp eq i32 %5, 0
  br i1 %6, label %.loopexit, label %7

7:                                                ; preds = %.lr.ph
  %8 = tail call ptr @Mio_PinReadNext(ptr noundef nonnull %.01419) #20
  %9 = add nuw nsw i32 %.020, 1
  %.not = icmp eq ptr %8, null
  br i1 %.not, label %._crit_edge, label %.lr.ph, !llvm.loop !100

._crit_edge:                                      ; preds = %7, %2
  %.0.lcssa = phi i32 [ 0, %2 ], [ %9, %7 ]
  %10 = tail call ptr @Mio_GateReadOutName(ptr noundef %0) #20
  %11 = tail call i32 @strcmp(ptr noundef nonnull dereferenceable(1) %1, ptr noundef nonnull dereferenceable(1) %10) #22
  %12 = icmp eq i32 %11, 0
  br i1 %12, label %.loopexit, label %13

13:                                               ; preds = %._crit_edge
  %14 = tail call ptr @Mio_GateReadTwin(ptr noundef %0) #20
  %.not16 = icmp eq ptr %14, null
  br i1 %.not16, label %.loopexit, label %15

15:                                               ; preds = %13
  %16 = tail call ptr @Mio_GateReadTwin(ptr noundef %0) #20
  %17 = tail call ptr @Mio_GateReadOutName(ptr noundef %16) #20
  %18 = tail call i32 @strcmp(ptr noundef nonnull dereferenceable(1) %1, ptr noundef nonnull dereferenceable(1) %17) #22
  %19 = icmp eq i32 %18, 0
  %20 = add nuw nsw i32 %.0.lcssa, 1
  %spec.select = select i1 %19, i32 %20, i32 -1
  br label %.loopexit

.loopexit:                                        ; preds = %.lr.ph, %15, %13, %._crit_edge
  %.015 = phi i32 [ %.0.lcssa, %._crit_edge ], [ -1, %13 ], [ %spec.select, %15 ], [ %.020, %.lr.ph ]
  ret i32 %.015
}